; Function Attrs: mustprogress uwtable
define internal fastcc void @_ZN4ncnnL20get_optimal_tile_mnkEiiiiiiRiS0_S0_i(i32 noundef %0, i32 noundef %1, i32 noundef %2, i32 noundef %3, i32 noundef %4, i32 noundef %5, ptr nocapture noundef nonnull align 4 dereferenceable(4) %6, ptr nocapture noundef nonnull align 4 dereferenceable(4) %7, ptr nocapture noundef nonnull writeonly align 4 dereferenceable(4) %8, i32 noundef %9) unnamed_addr #0 {
  %11 = tail call noundef i32 @_ZN4ncnn25get_cpu_level2_cache_sizeEv()
  %12 = sext i32 %11 to i64
  %13 = icmp eq i32 %9, 0
  br i1 %13, label %14, label %16

14:                                               ; preds = %10
  %15 = tail call noundef i32 @_ZN4ncnn26get_physical_big_cpu_countEv()
  br label %16

16:                                               ; preds = %14, %10
  %.0 = phi i32 [ %15, %14 ], [ %9, %10 ]
  %17 = uitofp i64 %12 to float
  %18 = fmul fast float %17, 0x3FB5555560000000
  %19 = tail call fast noundef float @llvm.sqrt.f32(float %18)
  %20 = fptosi float %19 to i32
  %21 = sdiv i32 %20, 4
  %22 = shl nsw i32 %21, 2
  %.sroa.speculated115 = tail call i32 @llvm.smax.i32(i32 %22, i32 4)
  store i32 %.sroa.speculated115, ptr %6, align 4
  store i32 %.sroa.speculated115, ptr %7, align 4
  store i32 %.sroa.speculated115, ptr %8, align 4
  %23 = icmp sgt i32 %2, 0
  br i1 %23, label %24, label %40

24:                                               ; preds = %16
  %25 = add nsw i32 %2, -1
  %26 = add nuw i32 %25, %.sroa.speculated115
  %27 = udiv i32 %26, %.sroa.speculated115
  %28 = add nuw i32 %25, %27
  %29 = udiv i32 %28, %27
  %30 = add nuw nsw i32 %29, 3
  %31 = and i32 %30, -4
  %.sroa.speculated99 = tail call i32 @llvm.umin.i32(i32 %31, i32 %.sroa.speculated115)
  store i32 %.sroa.speculated99, ptr %8, align 4
  %32 = icmp eq i32 %27, 1
  br i1 %32, label %33, label %40

33:                                               ; preds = %24
  %34 = fmul fast float %17, 1.250000e-01
  %35 = uitofp nneg i32 %.sroa.speculated99 to float
  %36 = fdiv fast float %34, %35
  %37 = fptosi float %36 to i32
  %38 = sdiv i32 %37, 4
  %39 = shl nsw i32 %38, 2
  %.sroa.speculated93 = tail call i32 @llvm.smax.i32(i32 %39, i32 4)
  store i32 %.sroa.speculated93, ptr %6, align 4
  store i32 %.sroa.speculated93, ptr %7, align 4
  br label %40

40:                                               ; preds = %24, %33, %16
  %41 = tail call noundef i32 @_ZN4ncnn22get_physical_cpu_countEv()
  %.sroa.speculated83 = tail call i32 @llvm.smin.i32(i32 %41, i32 %.0)
  %42 = load i32, ptr %6, align 4
  %43 = mul nsw i32 %42, %.sroa.speculated83
  %44 = icmp sgt i32 %0, 0
  br i1 %44, label %45, label %54

45:                                               ; preds = %40
  %46 = add nsw i32 %0, -1
  %47 = add i32 %46, %43
  %48 = sdiv i32 %47, %43
  %49 = add i32 %46, %48
  %50 = sdiv i32 %49, %48
  %51 = add nsw i32 %50, 3
  %52 = sdiv i32 %51, 4
  %53 = shl nsw i32 %52, 2
  %.sroa.speculated79 = tail call i32 @llvm.smin.i32(i32 %53, i32 %43)
  br label %54

54:                                               ; preds = %45, %40
  %storemerge = phi i32 [ %.sroa.speculated79, %45 ], [ %43, %40 ]
  store i32 %storemerge, ptr %6, align 4
  %55 = icmp sgt i32 %1, 0
  br i1 %55, label %56, label %66

56:                                               ; preds = %54
  %57 = load i32, ptr %7, align 4
  %58 = add nsw i32 %1, -1
  %59 = add i32 %58, %57
  %60 = sdiv i32 %59, %57
  %61 = add i32 %58, %60
  %62 = sdiv i32 %61, %60
  %63 = add nsw i32 %62, 3
  %64 = sdiv i32 %63, 4
  %65 = shl nsw i32 %64, 2
  %.sroa.speculated75 = tail call i32 @llvm.smin.i32(i32 %65, i32 %57)
  store i32 %.sroa.speculated75, ptr %7, align 4
  br label %66

66:                                               ; preds = %56, %54
  %67 = icmp sgt i32 %.0, 1
  br i1 %67, label %68, label %73

68:                                               ; preds = %66
  %69 = load i32, ptr %6, align 4
  %70 = sdiv i32 %69, %.0
  %.sroa.speculated = tail call i32 @llvm.smax.i32(i32 %70, i32 1)
  %71 = add nuw nsw i32 %.sroa.speculated, 3
  %72 = and i32 %71, 2147483644
  %.sroa.speculated71 = tail call i32 @llvm.smin.i32(i32 %72, i32 %69)
  store i32 %.sroa.speculated71, ptr %6, align 4
  br label %73

73:                                               ; preds = %68, %66
  %74 = icmp sgt i32 %3, 0
  br i1 %74, label %75, label %78

75:                                               ; preds = %73
  %76 = add nuw nsw i32 %3, 3
  %77 = and i32 %76, 2147483644
  store i32 %77, ptr %6, align 4
  br label %78

78:                                               ; preds = %75, %73
  %79 = icmp sgt i32 %4, 0
  br i1 %79, label %80, label %83

80:                                               ; preds = %78
  %81 = add nuw nsw i32 %4, 3
  %82 = and i32 %81, 2147483644
  store i32 %82, ptr %7, align 4
  br label %83

83:                                               ; preds = %80, %78
  %84 = icmp sgt i32 %5, 0
  br i1 %84, label %85, label %88

85:                                               ; preds = %83
  %86 = add nuw nsw i32 %5, 3
  %87 = and i32 %86, 2147483644
  store i32 %87, ptr %8, align 4
  br label %88

88:                                               ; preds = %85, %83
  ret void
}